; ModuleID = 'bench/openjdk/original/jio.ll'
source_filename = "bench/openjdk/original/jio.ll"
target datalayout = "e-m:e-p270:32:32-p271:32:32-p272:64:64-i64:64-i128:128-f80:128-n8:16:32:64-S128"
target triple = "x86_64-pc-linux-gnu"

%struct.__va_list_tag = type { i32, i32, ptr, ptr }

; Function Attrs: nounwind uwtable
define i32 @jio_snprintf(ptr noundef %0, i64 noundef %1, ptr noundef %2, ...) local_unnamed_addr #0 {
  %4 = alloca [1 x %struct.__va_list_tag], align 16
  call void @llvm.va_start.p0(ptr nonnull %4)
  %5 = call i32 @jio_vsnprintf(ptr noundef %0, i64 noundef %1, ptr noundef %2, ptr noundef nonnull %4) #3
  call void @llvm.va_end.p0(ptr nonnull %4)
  ret i32 %5
}

; Function Attrs: mustprogress nocallback nofree nosync nounwind willreturn
declare void @llvm.va_start.p0(ptr) #1

declare i32 @jio_vsnprintf(ptr noundef, i64 noundef, ptr noundef, ptr noundef) local_unnamed_addr #2

; Function Attrs: mustprogress nocallback nofree nosync nounwind willreturn
declare void @llvm.va_end.p0(ptr) #1

; Function Attrs: nounwind uwtable
define i32 @jio_fprintf(ptr noundef %0, ptr noundef %1, ...) local_unnamed_addr #0 {
  %3 = alloca [1 x %struct.__va_list_tag], align 16
  call void @llvm.va_start.p0(ptr nonnull %3)
  %4 = call i32 @jio_vfprintf(ptr noundef %0, ptr noundef %1, ptr noundef nonnull %3) #3
  call void @llvm.va_end.p0(ptr nonnull %3)
  ret i32 %4
}

declare i32 @jio_vfprintf(ptr noundef, ptr noundef, ptr noundef) local_unnamed_addr #2


!llvm.module.flags = !{!0, !1, !2, !3, !4, !5}

!0 = !{i32 7, !"Dwarf Version", i32 5}
!1 = !{i32 2, !"Debug Info Version", i32 3}
!2 = !{i32 1, !"wchar_size", i32 4}
!3 = !{i32 8, !"PIC Level", i32 2}
!4 = !{i32 7, !"uwtable", i32 2}
!5 = !{i32 7, !"frame-pointer", i32 2}
